target datalayout = "e-m:e-p270:32:32-p271:32:32-p272:64:64-i64:64-i128:128-f80:128-n8:16:32:64-S128"
target triple = "x86_64-pc-linux-gnu"

%struct.Abc_Ntk_t_ = type { i32, i32, ptr, ptr, ptr, ptr, ptr, ptr, ptr, ptr, ptr, ptr, ptr, [11 x i32], i32, i32, i32, i32, ptr, i32, ptr, ptr, i32, i32, i32, double, i32, %struct.Vec_Int_t_, ptr, ptr, ptr, ptr, ptr, float, i32, ptr, ptr, ptr, ptr, ptr, ptr, ptr, ptr, ptr, ptr, ptr, ptr, ptr, ptr, ptr, ptr, ptr, ptr, ptr, ptr, ptr }
%struct.Vec_Int_t_ = type { i32, i32, ptr }
%struct.Vec_Ptr_t_ = type { i32, i32, ptr }

@.str.19 = private unnamed_addr constant [2 x i8] c"\0A\00", align 1
@.str.26 = private unnamed_addr constant [4 x i8] c"(%s\00", align 1
@.str.27 = private unnamed_addr constant [4 x i8] c" %s\00", align 1
@.str.28 = private unnamed_addr constant [2 x i8] c")\00", align 1

; Function Attrs: nounwind uwtable
define internal i32 @Vec_PtrSize(ptr noundef %0) #0 {
  %2 = alloca ptr, align 8
  store ptr %0, ptr %2, align 8
  %3 = load ptr, ptr %2, align 8
  %4 = getelementptr inbounds %struct.Vec_Ptr_t_, ptr %3, i32 0, i32 1
  %5 = load i32, ptr %4, align 4
  ret i32 %5
}

; Function Attrs: nounwind uwtable
define internal ptr @Vec_PtrEntry(ptr noundef %0, i32 noundef %1) #0 {
  %3 = alloca ptr, align 8
  %4 = alloca i32, align 4
  store ptr %0, ptr %3, align 8
  store i32 %1, ptr %4, align 4
  %5 = load ptr, ptr %3, align 8
  %6 = getelementptr inbounds %struct.Vec_Ptr_t_, ptr %5, i32 0, i32 2
  %7 = load ptr, ptr %6, align 8
  %8 = load i32, ptr %4, align 4
  %9 = sext i32 %8 to i64
  %10 = getelementptr inbounds ptr, ptr %7, i64 %9
  %11 = load ptr, ptr %10, align 8
  ret ptr %11
}

; Function Attrs: nounwind uwtable
define internal i32 @Abc_NtkPoNum(ptr noundef %0) #0 {
  %2 = alloca ptr, align 8
  store ptr %0, ptr %2, align 8
  %3 = load ptr, ptr %2, align 8
  %4 = getelementptr inbounds %struct.Abc_Ntk_t_, ptr %3, i32 0, i32 7
  %5 = load ptr, ptr %4, align 8
  %6 = call i32 @Vec_PtrSize(ptr noundef %5)
  ret i32 %6
}

; Function Attrs: nounwind uwtable
define internal ptr @getVertexName(ptr noundef %0, i32 noundef %1) #0 {
  %3 = alloca ptr, align 8
  %4 = alloca i32, align 4
  %5 = alloca ptr, align 8
  %6 = alloca i32, align 4
  store ptr %0, ptr %3, align 8
  store i32 %1, ptr %4, align 4
  %7 = load ptr, ptr %3, align 8
  %8 = call i32 @Abc_NtkPoNum(ptr noundef %7)
  store i32 %8, ptr %6, align 4
  %9 = load i32, ptr %4, align 4
  %10 = load i32, ptr %6, align 4
  %11 = icmp slt i32 %9, %10
  br i1 %11, label %12, label %18

12:                                               ; preds = %2
  %13 = load ptr, ptr %3, align 8
  %14 = getelementptr inbounds %struct.Abc_Ntk_t_, ptr %13, i32 0, i32 7
  %15 = load ptr, ptr %14, align 8
  %16 = load i32, ptr %4, align 4
  %17 = call ptr @Vec_PtrEntry(ptr noundef %15, i32 noundef %16)
  store ptr %17, ptr %5, align 8
  br label %26

18:                                               ; preds = %2
  %19 = load ptr, ptr %3, align 8
  %20 = getelementptr inbounds %struct.Abc_Ntk_t_, ptr %19, i32 0, i32 6
  %21 = load ptr, ptr %20, align 8
  %22 = load i32, ptr %4, align 4
  %23 = load i32, ptr %6, align 4
  %24 = sub nsw i32 %22, %23
  %25 = call ptr @Vec_PtrEntry(ptr noundef %21, i32 noundef %24)
  store ptr %25, ptr %5, align 8
  br label %26

26:                                               ; preds = %18, %12
  %27 = load ptr, ptr %5, align 8
  %28 = call ptr @Abc_ObjName(ptr noundef %27)
  ret ptr %28
}

; Function Attrs: nounwind uwtable
define internal i32 @print_automorphism_ntk(ptr noundef %0, i32 noundef %1, ptr noundef %2, i32 noundef %3, ptr noundef %4, ptr noundef %5, ptr noundef %6) #0 {
  %8 = alloca ptr, align 8
  %9 = alloca i32, align 4
  %10 = alloca ptr, align 8
  %11 = alloca i32, align 4
  %12 = alloca ptr, align 8
  %13 = alloca ptr, align 8
  %14 = alloca ptr, align 8
  %15 = alloca i32, align 4
  %16 = alloca i32, align 4
  %17 = alloca i32, align 4
  store ptr %0, ptr %8, align 8
  store i32 %1, ptr %9, align 4
  store ptr %2, ptr %10, align 8
  store i32 %3, ptr %11, align 4
  store ptr %4, ptr %12, align 8
  store ptr %5, ptr %13, align 8
  store ptr %6, ptr %14, align 8
  store i32 0, ptr %15, align 4
  br label %18

18:                                               ; preds = %73, %7
  %19 = load i32, ptr %15, align 4
  %20 = load i32, ptr %11, align 4
  %21 = icmp slt i32 %19, %20
  br i1 %21, label %22, label %76

22:                                               ; preds = %18
  %23 = load ptr, ptr %12, align 8
  %24 = load i32, ptr %15, align 4
  %25 = sext i32 %24 to i64
  %26 = getelementptr inbounds i32, ptr %23, i64 %25
  %27 = load i32, ptr %26, align 4
  store i32 %27, ptr %17, align 4
  %28 = load ptr, ptr %13, align 8
  %29 = load i32, ptr %17, align 4
  %30 = sext i32 %29 to i64
  %31 = getelementptr inbounds i8, ptr %28, i64 %30
  %32 = load i8, ptr %31, align 1
  %33 = icmp ne i8 %32, 0
  br i1 %33, label %34, label %35

34:                                               ; preds = %22
  br label %73

35:                                               ; preds = %22
  %36 = load ptr, ptr %13, align 8
  %37 = load i32, ptr %17, align 4
  %38 = sext i32 %37 to i64
  %39 = getelementptr inbounds i8, ptr %36, i64 %38
  store i8 1, ptr %39, align 1
  %40 = load ptr, ptr %8, align 8
  %41 = load ptr, ptr %14, align 8
  %42 = load i32, ptr %17, align 4
  %43 = call ptr @getVertexName(ptr noundef %41, i32 noundef %42)
  %44 = call i32 (ptr, ptr, ...) @fprintf(ptr noundef %40, ptr noundef @.str.26, ptr noundef %43) #10
  %45 = load ptr, ptr %10, align 8
  %46 = load i32, ptr %17, align 4
  %47 = sext i32 %46 to i64
  %48 = getelementptr inbounds i32, ptr %45, i64 %47
  %49 = load i32, ptr %48, align 4
  store i32 %49, ptr %16, align 4
  br label %50

50:                                               ; preds = %64, %35
  %51 = load i32, ptr %16, align 4
  %52 = load i32, ptr %17, align 4
  %53 = icmp ne i32 %51, %52
  br i1 %53, label %54, label %70

54:                                               ; preds = %50
  %55 = load ptr, ptr %13, align 8
  %56 = load i32, ptr %16, align 4
  %57 = sext i32 %56 to i64
  %58 = getelementptr inbounds i8, ptr %55, i64 %57
  store i8 1, ptr %58, align 1
  %59 = load ptr, ptr %8, align 8
  %60 = load ptr, ptr %14, align 8
  %61 = load i32, ptr %16, align 4
  %62 = call ptr @getVertexName(ptr noundef %60, i32 noundef %61)
  %63 = call i32 (ptr, ptr, ...) @fprintf(ptr noundef %59, ptr noundef @.str.27, ptr noundef %62) #10
  br label %64

64:                                               ; preds = %54
  %65 = load ptr, ptr %10, align 8
  %66 = load i32, ptr %16, align 4
  %67 = sext i32 %66 to i64
  %68 = getelementptr inbounds i32, ptr %65, i64 %67
  %69 = load i32, ptr %68, align 4
  store i32 %69, ptr %16, align 4
  br label %50, !llvm.loop !69

70:                                               ; preds = %50
  %71 = load ptr, ptr %8, align 8
  %72 = call i32 (ptr, ptr, ...) @fprintf(ptr noundef %71, ptr noundef @.str.28) #10
  br label %73

73:                                               ; preds = %70, %34
  %74 = load i32, ptr %15, align 4
  %75 = add nsw i32 %74, 1
  store i32 %75, ptr %15, align 4
  br label %18, !llvm.loop !70

76:                                               ; preds = %18
  %77 = load ptr, ptr %8, align 8
  %78 = call i32 (ptr, ptr, ...) @fprintf(ptr noundef %77, ptr noundef @.str.19) #10
  store i32 0, ptr %15, align 4
  br label %79

79:                                               ; preds = %92, %76
  %80 = load i32, ptr %15, align 4
  %81 = load i32, ptr %11, align 4
  %82 = icmp slt i32 %80, %81
  br i1 %82, label %83, label %95

83:                                               ; preds = %79
  %84 = load ptr, ptr %13, align 8
  %85 = load ptr, ptr %12, align 8
  %86 = load i32, ptr %15, align 4
  %87 = sext i32 %86 to i64
  %88 = getelementptr inbounds i32, ptr %85, i64 %87
  %89 = load i32, ptr %88, align 4
  %90 = sext i32 %89 to i64
  %91 = getelementptr inbounds i8, ptr %84, i64 %90
  store i8 0, ptr %91, align 1
  br label %92

92:                                               ; preds = %83
  %93 = load i32, ptr %15, align 4
  %94 = add nsw i32 %93, 1
  store i32 %94, ptr %15, align 4
  br label %79, !llvm.loop !71

95:                                               ; preds = %79
  ret i32 1
}