; Function Attrs: nounwind uwtable
define internal noundef i32 @print_automorphism_ntk(ptr noundef captures(none) %0, i32 %1, ptr noundef readonly captures(none) %2, i32 noundef %3, ptr noundef readonly captures(none) %4, ptr noundef captures(none) %5, ptr noundef readonly captures(none) %6) #0 {
  %8 = icmp sgt i32 %3, 0
  br i1 %8, label %.lr.ph47, label %._crit_edge48.thread

._crit_edge48.thread:                             ; preds = %7
  %fputc61 = tail call i32 @fputc(i32 10, ptr %0)
  br label %._crit_edge52

.lr.ph47:                                         ; preds = %7
  %9 = getelementptr i8, ptr %6, i64 48
  %10 = getelementptr inbounds nuw i8, ptr %6, i64 40
  %wide.trip.count = zext nneg i32 %3 to i64
  br label %11

11:                                               ; preds = %.lr.ph47, %38
  %indvars.iv = phi i64 [ 0, %.lr.ph47 ], [ %indvars.iv.next, %38 ]
  %12 = getelementptr inbounds nuw i32, ptr %4, i64 %indvars.iv
  %13 = load i32, ptr %12, align 4
  %14 = sext i32 %13 to i64
  %15 = getelementptr inbounds i8, ptr %5, i64 %14
  %16 = load i8, ptr %15, align 1
  %.not = icmp eq i8 %16, 0
  br i1 %.not, label %17, label %38

17:                                               ; preds = %11
  store i8 1, ptr %15, align 1
  %.val.i = load ptr, ptr %9, align 8
  %18 = getelementptr i8, ptr %.val.i, i64 4
  %.val.val.i = load i32, ptr %18, align 4
  %19 = icmp slt i32 %13, %.val.val.i
  br i1 %19, label %getVertexName.exit, label %20

20:                                               ; preds = %17
  %21 = load ptr, ptr %10, align 8
  %22 = sub nsw i32 %13, %.val.val.i
  %.pre = sext i32 %22 to i64
  br label %getVertexName.exit

getVertexName.exit:                               ; preds = %17, %20
  %.pre-phi = phi i64 [ %14, %17 ], [ %.pre, %20 ]
  %.sink13.i = phi ptr [ %.val.i, %17 ], [ %21, %20 ]
  %23 = getelementptr i8, ptr %.sink13.i, i64 8
  %.val10.i = load ptr, ptr %23, align 8
  %24 = getelementptr inbounds ptr, ptr %.val10.i, i64 %.pre-phi
  %.0.i = load ptr, ptr %24, align 8
  %25 = tail call ptr @Abc_ObjName(ptr noundef %.0.i) #24
  %26 = tail call i32 (ptr, ptr, ...) @fprintf(ptr noundef %0, ptr noundef nonnull @.str.26, ptr noundef %25) #24
  %.030.in41 = getelementptr inbounds i32, ptr %2, i64 %14
  %.03042 = load i32, ptr %.030.in41, align 4
  %.not3243 = icmp eq i32 %.03042, %13
  br i1 %.not3243, label %._crit_edge, label %.lr.ph

.lr.ph:                                           ; preds = %getVertexName.exit, %getVertexName.exit40
  %.03044 = phi i32 [ %.030, %getVertexName.exit40 ], [ %.03042, %getVertexName.exit ]
  %27 = sext i32 %.03044 to i64
  %28 = getelementptr inbounds i8, ptr %5, i64 %27
  store i8 1, ptr %28, align 1
  %.val.i34 = load ptr, ptr %9, align 8
  %29 = getelementptr i8, ptr %.val.i34, i64 4
  %.val.val.i35 = load i32, ptr %29, align 4
  %30 = icmp slt i32 %.03044, %.val.val.i35
  br i1 %30, label %getVertexName.exit40, label %31

31:                                               ; preds = %.lr.ph
  %32 = load ptr, ptr %10, align 8
  %33 = sub nsw i32 %.03044, %.val.val.i35
  %.pre59 = sext i32 %33 to i64
  br label %getVertexName.exit40

getVertexName.exit40:                             ; preds = %.lr.ph, %31
  %.pre-phi60 = phi i64 [ %27, %.lr.ph ], [ %.pre59, %31 ]
  %.sink13.i36 = phi ptr [ %.val.i34, %.lr.ph ], [ %32, %31 ]
  %34 = getelementptr i8, ptr %.sink13.i36, i64 8
  %.val10.i38 = load ptr, ptr %34, align 8
  %35 = getelementptr inbounds ptr, ptr %.val10.i38, i64 %.pre-phi60
  %.0.i39 = load ptr, ptr %35, align 8
  %36 = tail call ptr @Abc_ObjName(ptr noundef %.0.i39) #24
  %37 = tail call i32 (ptr, ptr, ...) @fprintf(ptr noundef %0, ptr noundef nonnull @.str.27, ptr noundef %36) #24
  %.030.in = getelementptr inbounds i32, ptr %2, i64 %27
  %.030 = load i32, ptr %.030.in, align 4
  %.not32 = icmp eq i32 %.030, %13
  br i1 %.not32, label %._crit_edge, label %.lr.ph, !llvm.loop !99

._crit_edge:                                      ; preds = %getVertexName.exit40, %getVertexName.exit
  %fputc33 = tail call i32 @fputc(i32 41, ptr %0)
  br label %38

38:                                               ; preds = %11, %._crit_edge
  %indvars.iv.next = add nuw nsw i64 %indvars.iv, 1
  %exitcond.not = icmp eq i64 %indvars.iv.next, %wide.trip.count
  br i1 %exitcond.not, label %._crit_edge48, label %11, !llvm.loop !100

._crit_edge48:                                    ; preds = %38
  %fputc = tail call i32 @fputc(i32 10, ptr %0)
  %wide.trip.count57 = zext nneg i32 %3 to i64
  br label %.lr.ph51

.lr.ph51:                                         ; preds = %._crit_edge48, %.lr.ph51
  %indvars.iv54 = phi i64 [ 0, %._crit_edge48 ], [ %indvars.iv.next55, %.lr.ph51 ]
  %39 = getelementptr inbounds nuw i32, ptr %4, i64 %indvars.iv54
  %40 = load i32, ptr %39, align 4
  %41 = sext i32 %40 to i64
  %42 = getelementptr inbounds i8, ptr %5, i64 %41
  store i8 0, ptr %42, align 1
  %indvars.iv.next55 = add nuw nsw i64 %indvars.iv54, 1
  %exitcond58.not = icmp eq i64 %indvars.iv.next55, %wide.trip.count57
  br i1 %exitcond58.not, label %._crit_edge52, label %.lr.ph51, !llvm.loop !101

._crit_edge52:                                    ; preds = %.lr.ph51, %._crit_edge48.thread
  ret i32 1
}